; ModuleID = '57/2295.c'
source_filename = "57/2295.c"
target datalayout = "e-m:e-p270:32:32-p271:32:32-p272:64:64-i64:64-f80:128-n8:16:32:64-S128"
target triple = "x86_64-pc-linux-gnu"

@.str = private unnamed_addr constant [3 x i8] c"%d\00", align 1
@.str.1 = private unnamed_addr constant [3 x i8] c"%s\00", align 1

; Function Attrs: noinline nounwind uwtable
define dso_local i32 @main() #0 {
  %1 = alloca i32, align 4
  %2 = alloca i32, align 4
  %3 = alloca i32, align 4
  %4 = alloca i32, align 4
  %5 = alloca i32, align 4
  %6 = alloca [50 x i32], align 16
  %7 = alloca [50 x [32 x i8]], align 16
  %8 = alloca [50 x [32 x i8]], align 16
  store i32 0, i32* %1, align 4
  %9 = call i32 (i8*, ...) @__isoc99_scanf(i8* getelementptr inbounds ([3 x i8], [3 x i8]* @.str, i64 0, i64 0), i32* %2)
  store i32 0, i32* %3, align 4
  br label %10

10:                                               ; preds = %20, %0
  %11 = load i32, i32* %3, align 4
  %12 = load i32, i32* %2, align 4
  %13 = icmp slt i32 %11, %12
  br i1 %13, label %14, label %23

14:                                               ; preds = %10
  %15 = load i32, i32* %3, align 4
  %16 = sext i32 %15 to i64
  %17 = getelementptr inbounds [50 x [32 x i8]], [50 x [32 x i8]]* %7, i64 0, i64 %16
  %18 = getelementptr inbounds [32 x i8], [32 x i8]* %17, i64 0, i64 0
  %19 = call i32 (i8*, ...) @__isoc99_scanf(i8* getelementptr inbounds ([3 x i8], [3 x i8]* @.str.1, i64 0, i64 0), i8* %18)
  br label %20

20:                                               ; preds = %14
  %21 = load i32, i32* %3, align 4
  %22 = add nsw i32 %21, 1
  store i32 %22, i32* %3, align 4
  br label %10

23:                                               ; preds = %10
  store i32 0, i32* %3, align 4
  br label %24

24:                                               ; preds = %229, %23
  %25 = load i32, i32* %3, align 4
  %26 = load i32, i32* %2, align 4
  %27 = icmp slt i32 %25, %26
  br i1 %27, label %28, label %232

28:                                               ; preds = %24
  %29 = load i32, i32* %3, align 4
  %30 = sext i32 %29 to i64
  %31 = getelementptr inbounds [50 x [32 x i8]], [50 x [32 x i8]]* %7, i64 0, i64 %30
  %32 = getelementptr inbounds [32 x i8], [32 x i8]* %31, i64 0, i64 0
  %33 = call i64 @strlen(i8* %32) #3
  %34 = trunc i64 %33 to i32
  %35 = load i32, i32* %3, align 4
  %36 = sext i32 %35 to i64
  %37 = getelementptr inbounds [50 x i32], [50 x i32]* %6, i64 0, i64 %36
  store i32 %34, i32* %37, align 4
  %38 = load i32, i32* %3, align 4
  %39 = sext i32 %38 to i64
  %40 = getelementptr inbounds [50 x [32 x i8]], [50 x [32 x i8]]* %7, i64 0, i64 %39
  %41 = load i32, i32* %3, align 4
  %42 = sext i32 %41 to i64
  %43 = getelementptr inbounds [50 x i32], [50 x i32]* %6, i64 0, i64 %42
  %44 = load i32, i32* %43, align 4
  %45 = sub nsw i32 %44, 3
  %46 = sext i32 %45 to i64
  %47 = getelementptr inbounds [32 x i8], [32 x i8]* %40, i64 0, i64 %46
  %48 = load i8, i8* %47, align 1
  %49 = sext i8 %48 to i32
  %50 = icmp eq i32 %49, 105
  br i1 %50, label %51, label %125

51:                                               ; preds = %28
  %52 = load i32, i32* %3, align 4
  %53 = sext i32 %52 to i64
  %54 = getelementptr inbounds [50 x [32 x i8]], [50 x [32 x i8]]* %7, i64 0, i64 %53
  %55 = load i32, i32* %3, align 4
  %56 = sext i32 %55 to i64
  %57 = getelementptr inbounds [50 x i32], [50 x i32]* %6, i64 0, i64 %56
  %58 = load i32, i32* %57, align 4
  %59 = sub nsw i32 %58, 2
  %60 = sext i32 %59 to i64
  %61 = getelementptr inbounds [32 x i8], [32 x i8]* %54, i64 0, i64 %60
  %62 = load i8, i8* %61, align 1
  %63 = sext i8 %62 to i32
  %64 = icmp eq i32 %63, 110
  br i1 %64, label %65, label %125

65:                                               ; preds = %51
  %66 = load i32, i32* %3, align 4
  %67 = sext i32 %66 to i64
  %68 = getelementptr inbounds [50 x [32 x i8]], [50 x [32 x i8]]* %7, i64 0, i64 %67
  %69 = load i32, i32* %3, align 4
  %70 = sext i32 %69 to i64
  %71 = getelementptr inbounds [50 x i32], [50 x i32]* %6, i64 0, i64 %70
  %72 = load i32, i32* %71, align 4
  %73 = sub nsw i32 %72, 1
  %74 = sext i32 %73 to i64
  %75 = getelementptr inbounds [32 x i8], [32 x i8]* %68, i64 0, i64 %74
  %76 = load i8, i8* %75, align 1
  %77 = sext i8 %76 to i32
  %78 = icmp eq i32 %77, 103
  br i1 %78, label %79, label %125

79:                                               ; preds = %65
  store i32 0, i32* %5, align 4
  br label %80

80:                                               ; preds = %102, %79
  %81 = load i32, i32* %5, align 4
  %82 = load i32, i32* %3, align 4
  %83 = sext i32 %82 to i64
  %84 = getelementptr inbounds [50 x i32], [50 x i32]* %6, i64 0, i64 %83
  %85 = load i32, i32* %84, align 4
  %86 = sub nsw i32 %85, 3
  %87 = icmp slt i32 %81, %86
  br i1 %87, label %88, label %105

88:                                               ; preds = %80
  %89 = load i32, i32* %3, align 4
  %90 = sext i32 %89 to i64
  %91 = getelementptr inbounds [50 x [32 x i8]], [50 x [32 x i8]]* %7, i64 0, i64 %90
  %92 = load i32, i32* %5, align 4
  %93 = sext i32 %92 to i64
  %94 = getelementptr inbounds [32 x i8], [32 x i8]* %91, i64 0, i64 %93
  %95 = load i8, i8* %94, align 1
  %96 = load i32, i32* %3, align 4
  %97 = sext i32 %96 to i64
  %98 = getelementptr inbounds [50 x [32 x i8]], [50 x [32 x i8]]* %8, i64 0, i64 %97
  %99 = load i32, i32* %5, align 4
  %100 = sext i32 %99 to i64
  %101 = getelementptr inbounds [32 x i8], [32 x i8]* %98, i64 0, i64 %100
  store i8 %95, i8* %101, align 1
  br label %102

102:                                              ; preds = %88
  %103 = load i32, i32* %5, align 4
  %104 = add nsw i32 %103, 1
  store i32 %104, i32* %5, align 4
  br label %80

105:                                              ; preds = %80
  %106 = load i32, i32* %3, align 4
  %107 = sext i32 %106 to i64
  %108 = getelementptr inbounds [50 x [32 x i8]], [50 x [32 x i8]]* %8, i64 0, i64 %107
  %109 = load i32, i32* %3, align 4
  %110 = sext i32 %109 to i64
  %111 = getelementptr inbounds [50 x i32], [50 x i32]* %6, i64 0, i64 %110
  %112 = load i32, i32* %111, align 4
  %113 = sub nsw i32 %112, 3
  %114 = sext i32 %113 to i64
  %115 = getelementptr inbounds [32 x i8], [32 x i8]* %108, i64 0, i64 %114
  %116 = load i8, i8* %115, align 1
  %117 = sext i8 %116 to i32
  %118 = icmp eq i32 %117, 0
  %119 = zext i1 %118 to i32
  %120 = load i32, i32* %3, align 4
  %121 = sext i32 %120 to i64
  %122 = getelementptr inbounds [50 x [32 x i8]], [50 x [32 x i8]]* %8, i64 0, i64 %121
  %123 = getelementptr inbounds [32 x i8], [32 x i8]* %122, i64 0, i64 0
  %124 = call i32 @puts(i8* %123)
  br label %228

125:                                              ; preds = %65, %51, %28
  %126 = load i32, i32* %3, align 4
  %127 = sext i32 %126 to i64
  %128 = getelementptr inbounds [50 x [32 x i8]], [50 x [32 x i8]]* %7, i64 0, i64 %127
  %129 = load i32, i32* %3, align 4
  %130 = sext i32 %129 to i64
  %131 = getelementptr inbounds [50 x i32], [50 x i32]* %6, i64 0, i64 %130
  %132 = load i32, i32* %131, align 4
  %133 = sub nsw i32 %132, 2
  %134 = sext i32 %133 to i64
  %135 = getelementptr inbounds [32 x i8], [32 x i8]* %128, i64 0, i64 %134
  %136 = load i8, i8* %135, align 1
  %137 = sext i8 %136 to i32
  %138 = icmp eq i32 %137, 101
  br i1 %138, label %139, label %153

139:                                              ; preds = %125
  %140 = load i32, i32* %3, align 4
  %141 = sext i32 %140 to i64
  %142 = getelementptr inbounds [50 x [32 x i8]], [50 x [32 x i8]]* %7, i64 0, i64 %141
  %143 = load i32, i32* %3, align 4
  %144 = sext i32 %143 to i64
  %145 = getelementptr inbounds [50 x i32], [50 x i32]* %6, i64 0, i64 %144
  %146 = load i32, i32* %145, align 4
  %147 = sub nsw i32 %146, 1
  %148 = sext i32 %147 to i64
  %149 = getelementptr inbounds [32 x i8], [32 x i8]* %142, i64 0, i64 %148
  %150 = load i8, i8* %149, align 1
  %151 = sext i8 %150 to i32
  %152 = icmp eq i32 %151, 114
  br i1 %152, label %181, label %153

153:                                              ; preds = %139, %125
  %154 = load i32, i32* %3, align 4
  %155 = sext i32 %154 to i64
  %156 = getelementptr inbounds [50 x [32 x i8]], [50 x [32 x i8]]* %7, i64 0, i64 %155
  %157 = load i32, i32* %3, align 4
  %158 = sext i32 %157 to i64
  %159 = getelementptr inbounds [50 x i32], [50 x i32]* %6, i64 0, i64 %158
  %160 = load i32, i32* %159, align 4
  %161 = sub nsw i32 %160, 2
  %162 = sext i32 %161 to i64
  %163 = getelementptr inbounds [32 x i8], [32 x i8]* %156, i64 0, i64 %162
  %164 = load i8, i8* %163, align 1
  %165 = sext i8 %164 to i32
  %166 = icmp eq i32 %165, 108
  br i1 %166, label %167, label %227

167:                                              ; preds = %153
  %168 = load i32, i32* %3, align 4
  %169 = sext i32 %168 to i64
  %170 = getelementptr inbounds [50 x [32 x i8]], [50 x [32 x i8]]* %7, i64 0, i64 %169
  %171 = load i32, i32* %3, align 4
  %172 = sext i32 %171 to i64
  %173 = getelementptr inbounds [50 x i32], [50 x i32]* %6, i64 0, i64 %172
  %174 = load i32, i32* %173, align 4
  %175 = sub nsw i32 %174, 1
  %176 = sext i32 %175 to i64
  %177 = getelementptr inbounds [32 x i8], [32 x i8]* %170, i64 0, i64 %176
  %178 = load i8, i8* %177, align 1
  %179 = sext i8 %178 to i32
  %180 = icmp eq i32 %179, 121
  br i1 %180, label %181, label %227

181:                                              ; preds = %167, %139
  store i32 0, i32* %5, align 4
  br label %182

182:                                              ; preds = %204, %181
  %183 = load i32, i32* %5, align 4
  %184 = load i32, i32* %3, align 4
  %185 = sext i32 %184 to i64
  %186 = getelementptr inbounds [50 x i32], [50 x i32]* %6, i64 0, i64 %185
  %187 = load i32, i32* %186, align 4
  %188 = sub nsw i32 %187, 2
  %189 = icmp slt i32 %183, %188
  br i1 %189, label %190, label %207

190:                                              ; preds = %182
  %191 = load i32, i32* %3, align 4
  %192 = sext i32 %191 to i64
  %193 = getelementptr inbounds [50 x [32 x i8]], [50 x [32 x i8]]* %7, i64 0, i64 %192
  %194 = load i32, i32* %5, align 4
  %195 = sext i32 %194 to i64
  %196 = getelementptr inbounds [32 x i8], [32 x i8]* %193, i64 0, i64 %195
  %197 = load i8, i8* %196, align 1
  %198 = load i32, i32* %3, align 4
  %199 = sext i32 %198 to i64
  %200 = getelementptr inbounds [50 x [32 x i8]], [50 x [32 x i8]]* %8, i64 0, i64 %199
  %201 = load i32, i32* %5, align 4
  %202 = sext i32 %201 to i64
  %203 = getelementptr inbounds [32 x i8], [32 x i8]* %200, i64 0, i64 %202
  store i8 %197, i8* %203, align 1
  br label %204

204:                                              ; preds = %190
  %205 = load i32, i32* %5, align 4
  %206 = add nsw i32 %205, 1
  store i32 %206, i32* %5, align 4
  br label %182

207:                                              ; preds = %182
  %208 = load i32, i32* %3, align 4
  %209 = sext i32 %208 to i64
  %210 = getelementptr inbounds [50 x [32 x i8]], [50 x [32 x i8]]* %8, i64 0, i64 %209
  %211 = load i32, i32* %3, align 4
  %212 = sext i32 %211 to i64
  %213 = getelementptr inbounds [50 x i32], [50 x i32]* %6, i64 0, i64 %212
  %214 = load i32, i32* %213, align 4
  %215 = sub nsw i32 %214, 2
  %216 = sext i32 %215 to i64
  %217 = getelementptr inbounds [32 x i8], [32 x i8]* %210, i64 0, i64 %216
  %218 = load i8, i8* %217, align 1
  %219 = sext i8 %218 to i32
  %220 = icmp eq i32 %219, 0
  %221 = zext i1 %220 to i32
  %222 = load i32, i32* %3, align 4
  %223 = sext i32 %222 to i64
  %224 = getelementptr inbounds [50 x [32 x i8]], [50 x [32 x i8]]* %8, i64 0, i64 %223
  %225 = getelementptr inbounds [32 x i8], [32 x i8]* %224, i64 0, i64 0
  %226 = call i32 @puts(i8* %225)
  br label %227

227:                                              ; preds = %207, %167, %153
  br label %228

228:                                              ; preds = %227, %105
  br label %229

229:                                              ; preds = %228
  %230 = load i32, i32* %3, align 4
  %231 = add nsw i32 %230, 1
  store i32 %231, i32* %3, align 4
  br label %24

232:                                              ; preds = %24
  ret i32 0
}

declare dso_local i32 @__isoc99_scanf(i8*, ...) #1

; Function Attrs: nounwind readonly
declare dso_local i64 @strlen(i8*) #2

declare dso_local i32 @puts(i8*) #1


!llvm.module.flags = !{!0}
!llvm.ident = !{!1}

!0 = !{i32 1, !"wchar_size", i32 4}
!1 = !{!"clang version 10.0.0-4ubuntu1 "}
