; ModuleID = 'source-C-CXX/56/2295.c'
source_filename = "source-C-CXX/56/2295.c"
target datalayout = "e-m:e-p270:32:32-p271:32:32-p272:64:64-i64:64-f80:128-n8:16:32:64-S128"
target triple = "x86_64-pc-linux-gnu"

@.str = private unnamed_addr constant [3 x i8] c"%d\00", align 1
@.str.1 = private unnamed_addr constant [3 x i8] c"%s\00", align 1

; Function Attrs: nofree nounwind sspstrong uwtable
define dso_local i32 @main() local_unnamed_addr #0 {
  %1 = alloca i32, align 4
  %2 = alloca [50 x [32 x i8]], align 16
  %3 = alloca [50 x [32 x i8]], align 16
  %4 = bitcast i32* %1 to i8*
  call void @llvm.lifetime.start.p0i8(i64 4, i8* nonnull %4) #5
  %5 = call i32 (i8*, ...) @__isoc99_scanf(i8* getelementptr inbounds ([3 x i8], [3 x i8]* @.str, i64 0, i64 0), i32* nonnull %1)
  %6 = getelementptr inbounds [50 x [32 x i8]], [50 x [32 x i8]]* %2, i64 0, i64 0, i64 0
  call void @llvm.lifetime.start.p0i8(i64 1600, i8* nonnull %6) #5
  %7 = getelementptr inbounds [50 x [32 x i8]], [50 x [32 x i8]]* %3, i64 0, i64 0, i64 0
  call void @llvm.lifetime.start.p0i8(i64 1600, i8* nonnull %7) #5
  %8 = load i32, i32* %1, align 4, !tbaa !5
  %9 = icmp sgt i32 %8, 0
  br i1 %9, label %12, label %79

10:                                               ; preds = %12
  %11 = icmp sgt i32 %17, 0
  br i1 %11, label %20, label %79

12:                                               ; preds = %0, %12
  %13 = phi i64 [ %16, %12 ], [ 0, %0 ]
  %14 = getelementptr inbounds [50 x [32 x i8]], [50 x [32 x i8]]* %2, i64 0, i64 %13, i64 0
  %15 = call i32 (i8*, ...) @__isoc99_scanf(i8* getelementptr inbounds ([3 x i8], [3 x i8]* @.str.1, i64 0, i64 0), i8* nonnull %14)
  %16 = add nuw nsw i64 %13, 1
  %17 = load i32, i32* %1, align 4, !tbaa !5
  %18 = sext i32 %17 to i64
  %19 = icmp slt i64 %16, %18
  br i1 %19, label %12, label %10, !llvm.loop !9

20:                                               ; preds = %10, %74
  %21 = phi i64 [ %75, %74 ], [ 0, %10 ]
  %22 = getelementptr [50 x [32 x i8]], [50 x [32 x i8]]* %3, i64 0, i64 %21, i64 0
  %23 = getelementptr [50 x [32 x i8]], [50 x [32 x i8]]* %2, i64 0, i64 %21, i64 0
  %24 = call i64 @strlen(i8* noundef nonnull %23) #6
  %25 = trunc i64 %24 to i32
  %26 = shl i64 %24, 32
  %27 = add i64 %26, -12884901888
  %28 = ashr exact i64 %27, 32
  %29 = getelementptr inbounds [50 x [32 x i8]], [50 x [32 x i8]]* %2, i64 0, i64 %21, i64 %28
  %30 = load i8, i8* %29, align 1, !tbaa !11
  %31 = icmp eq i8 %30, 105
  br i1 %31, label %32, label %49

32:                                               ; preds = %20
  %33 = add i64 %26, -8589934592
  %34 = ashr exact i64 %33, 32
  %35 = getelementptr inbounds [50 x [32 x i8]], [50 x [32 x i8]]* %2, i64 0, i64 %21, i64 %34
  %36 = load i8, i8* %35, align 1, !tbaa !11
  %37 = icmp eq i8 %36, 110
  br i1 %37, label %38, label %49

38:                                               ; preds = %32
  %39 = add i64 %26, -4294967296
  %40 = ashr exact i64 %39, 32
  %41 = getelementptr inbounds [50 x [32 x i8]], [50 x [32 x i8]]* %2, i64 0, i64 %21, i64 %40
  %42 = load i8, i8* %41, align 1, !tbaa !11
  %43 = icmp eq i8 %42, 103
  br i1 %43, label %44, label %49

44:                                               ; preds = %38
  %45 = icmp sgt i32 %25, 3
  br i1 %45, label %46, label %72

46:                                               ; preds = %44
  %47 = add i64 %24, 4294967293
  %48 = and i64 %47, 4294967295
  br label %70

49:                                               ; preds = %38, %32, %20
  %50 = add i32 %25, -2
  %51 = sext i32 %50 to i64
  %52 = getelementptr inbounds [50 x [32 x i8]], [50 x [32 x i8]]* %2, i64 0, i64 %21, i64 %51
  %53 = load i8, i8* %52, align 1, !tbaa !11
  switch i8 %53, label %74 [
    i8 101, label %54
    i8 108, label %60
  ]

54:                                               ; preds = %49
  %55 = add i64 %26, -4294967296
  %56 = ashr exact i64 %55, 32
  %57 = getelementptr inbounds [50 x [32 x i8]], [50 x [32 x i8]]* %2, i64 0, i64 %21, i64 %56
  %58 = load i8, i8* %57, align 1, !tbaa !11
  %59 = icmp eq i8 %58, 114
  br i1 %59, label %66, label %74

60:                                               ; preds = %49
  %61 = add i64 %26, -4294967296
  %62 = ashr exact i64 %61, 32
  %63 = getelementptr inbounds [50 x [32 x i8]], [50 x [32 x i8]]* %2, i64 0, i64 %21, i64 %62
  %64 = load i8, i8* %63, align 1, !tbaa !11
  %65 = icmp eq i8 %64, 121
  br i1 %65, label %66, label %74

66:                                               ; preds = %60, %54
  %67 = icmp sgt i32 %25, 2
  br i1 %67, label %68, label %72

68:                                               ; preds = %66
  %69 = zext i32 %50 to i64
  br label %70

70:                                               ; preds = %46, %68
  %71 = phi i64 [ %69, %68 ], [ %48, %46 ]
  call void @llvm.memcpy.p0i8.p0i8.i64(i8* align 16 %22, i8* align 16 %23, i64 %71, i1 false)
  br label %72

72:                                               ; preds = %70, %66, %44
  %73 = call i32 @puts(i8* nonnull %22)
  br label %74

74:                                               ; preds = %72, %49, %54, %60
  %75 = add nuw nsw i64 %21, 1
  %76 = load i32, i32* %1, align 4, !tbaa !5
  %77 = sext i32 %76 to i64
  %78 = icmp slt i64 %75, %77
  br i1 %78, label %20, label %79, !llvm.loop !12

79:                                               ; preds = %74, %0, %10
  call void @llvm.lifetime.end.p0i8(i64 1600, i8* nonnull %7) #5
  call void @llvm.lifetime.end.p0i8(i64 1600, i8* nonnull %6) #5
  call void @llvm.lifetime.end.p0i8(i64 4, i8* nonnull %4) #5
  ret i32 0
}

; Function Attrs: argmemonly mustprogress nofree nosync nounwind willreturn
declare void @llvm.lifetime.start.p0i8(i64 immarg, i8* nocapture) #1

; Function Attrs: nofree nounwind
declare noundef i32 @__isoc99_scanf(i8* nocapture noundef readonly, ...) local_unnamed_addr #2

; Function Attrs: argmemonly mustprogress nofree nounwind readonly willreturn
declare i64 @strlen(i8* nocapture) local_unnamed_addr #3

; Function Attrs: nofree nounwind
declare noundef i32 @puts(i8* nocapture noundef readonly) local_unnamed_addr #2

; Function Attrs: argmemonly mustprogress nofree nosync nounwind willreturn
declare void @llvm.lifetime.end.p0i8(i64 immarg, i8* nocapture) #1

; Function Attrs: argmemonly nofree nounwind willreturn
declare void @llvm.memcpy.p0i8.p0i8.i64(i8* noalias nocapture writeonly, i8* noalias nocapture readonly, i64, i1 immarg) #4


!llvm.module.flags = !{!0, !1, !2, !3}
!llvm.ident = !{!4}

!0 = !{i32 1, !"wchar_size", i32 4}
!1 = !{i32 7, !"PIC Level", i32 2}
!2 = !{i32 7, !"PIE Level", i32 2}
!3 = !{i32 7, !"uwtable", i32 1}
!4 = !{!"clang version 13.0.0"}
!5 = !{!6, !6, i64 0}
!6 = !{!"int", !7, i64 0}
!7 = !{!"omnipotent char", !8, i64 0}
!8 = !{!"Simple C/C++ TBAA"}
!9 = distinct !{!9, !10}
!10 = !{!"llvm.loop.mustprogress"}
!11 = !{!7, !7, i64 0}
!12 = distinct !{!12, !10}
